; Function Attrs: mustprogress uwtable
define void @_ZN9grpc_core38AsyncConnectivityStateWatcherInterface6NotifyE23grpc_connectivity_stateRKN4absl12lts_202407226StatusE(ptr noundef nonnull align 8 dereferenceable(32) %0, i32 noundef %1, ptr noundef nonnull align 8 dereferenceable(8) %2) unnamed_addr #3 align 2 personality ptr @__gxx_personality_v0 {
  %4 = alloca %"class.grpc_core::RefCountedPtr", align 8
  %5 = tail call noalias noundef nonnull dereferenceable(56) ptr @_Znwm(i64 noundef 56) #30
  tail call void @llvm.experimental.noalias.scope.decl(metadata !3)
  %6 = getelementptr inbounds nuw i8, ptr %0, i64 8
  %7 = atomicrmw add ptr %6, i64 1 monotonic, align 8, !noalias !3
  store ptr %0, ptr %4, align 8, !tbaa !6, !alias.scope !3
  %8 = getelementptr inbounds nuw i8, ptr %0, i64 16
  invoke void @_ZN9grpc_core38AsyncConnectivityStateWatcherInterface8NotifierC2ENS_13RefCountedPtrIS0_EE23grpc_connectivity_stateRKN4absl12lts_202407226StatusERKSt10shared_ptrINS_14WorkSerializerEE(ptr noundef nonnull align 8 dereferenceable(56) %5, ptr noundef nonnull %4, i32 noundef %1, ptr noundef nonnull align 8 dereferenceable(8) %2, ptr noundef nonnull align 8 dereferenceable(16) %8)
          to label %9 unwind label %19

9:                                                ; preds = %3
  %10 = load ptr, ptr %4, align 8, !tbaa !6
  %.not.i = icmp eq ptr %10, null
  br i1 %.not.i, label %_ZN9grpc_core13RefCountedPtrINS_38AsyncConnectivityStateWatcherInterfaceEED2Ev.exit, label %11

11:                                               ; preds = %9
  %12 = getelementptr inbounds nuw i8, ptr %10, i64 8
  %13 = atomicrmw sub ptr %12, i64 1 acq_rel, align 8
  %14 = icmp eq i64 %13, 1
  br i1 %14, label %15, label %_ZN9grpc_core13RefCountedPtrINS_38AsyncConnectivityStateWatcherInterfaceEED2Ev.exit, !prof !12

15:                                               ; preds = %11
  %16 = load ptr, ptr %10, align 8, !tbaa !13
  %17 = getelementptr inbounds nuw i8, ptr %16, i64 16
  %18 = load ptr, ptr %17, align 8
  call void %18(ptr noundef nonnull align 8 dereferenceable(16) %10) #31
  br label %_ZN9grpc_core13RefCountedPtrINS_38AsyncConnectivityStateWatcherInterfaceEED2Ev.exit

_ZN9grpc_core13RefCountedPtrINS_38AsyncConnectivityStateWatcherInterfaceEED2Ev.exit: ; preds = %9, %11, %15
  ret void

19:                                               ; preds = %3
  %20 = landingpad { ptr, i32 }
          cleanup
  %21 = load ptr, ptr %4, align 8, !tbaa !6
  %.not.i7 = icmp eq ptr %21, null
  br i1 %.not.i7, label %_ZN9grpc_core13RefCountedPtrINS_38AsyncConnectivityStateWatcherInterfaceEED2Ev.exit8, label %22

22:                                               ; preds = %19
  %23 = getelementptr inbounds nuw i8, ptr %21, i64 8
  %24 = atomicrmw sub ptr %23, i64 1 acq_rel, align 8
  %25 = icmp eq i64 %24, 1
  br i1 %25, label %26, label %_ZN9grpc_core13RefCountedPtrINS_38AsyncConnectivityStateWatcherInterfaceEED2Ev.exit8, !prof !12

26:                                               ; preds = %22
  %27 = load ptr, ptr %21, align 8, !tbaa !13
  %28 = getelementptr inbounds nuw i8, ptr %27, i64 16
  %29 = load ptr, ptr %28, align 8
  call void %29(ptr noundef nonnull align 8 dereferenceable(16) %21) #31
  br label %_ZN9grpc_core13RefCountedPtrINS_38AsyncConnectivityStateWatcherInterfaceEED2Ev.exit8

_ZN9grpc_core13RefCountedPtrINS_38AsyncConnectivityStateWatcherInterfaceEED2Ev.exit8: ; preds = %26, %22, %19
  call void @_ZdlPvm(ptr noundef nonnull %5, i64 noundef 56) #32
  resume { ptr, i32 } %20
}